; Function Attrs: mustprogress uwtable
define noundef zeroext i1 @_ZN6casadi7Options7is_saneERKSt3mapINSt7__cxx1112basic_stringIcSt11char_traitsIcESaIcEEENS_11GenericTypeESt4lessIS7_ESaISt4pairIKS7_S8_EEE(ptr noundef nonnull readonly align 8 dereferenceable(48) %0) local_unnamed_addr #4 align 2 personality ptr @__gxx_personality_v0 {
  %2 = getelementptr inbounds i8, ptr %0, i64 24
  %3 = load ptr, ptr %2, align 8
  %4 = getelementptr inbounds i8, ptr %0, i64 8
  %.not15.i = icmp eq ptr %3, %4
  br i1 %.not15.i, label %_ZN6casadi7Options7has_dotERKSt3mapINSt7__cxx1112basic_stringIcSt11char_traitsIcESaIcEEENS_11GenericTypeESt4lessIS7_ESaISt4pairIKS7_S8_EEE.exit, label %.lr.ph.i

.lr.ph.i:                                         ; preds = %1, %9
  %.sroa.07.010.i = phi ptr [ %10, %9 ], [ %3, %1 ]
  %5 = getelementptr inbounds i8, ptr %.sroa.07.010.i, i64 32
  %6 = tail call noundef i64 @_ZNKSt7__cxx1112basic_stringIcSt11char_traitsIcESaIcEE4findEcm(ptr noundef nonnull align 8 dereferenceable(32) %5, i8 noundef signext 46, i64 noundef 0) #20
  %.not.i = icmp eq i64 %6, -1
  br i1 %.not.i, label %7, label %_ZN6casadi7Options7has_dotERKSt3mapINSt7__cxx1112basic_stringIcSt11char_traitsIcESaIcEEENS_11GenericTypeESt4lessIS7_ESaISt4pairIKS7_S8_EEE.exit.thread

7:                                                ; preds = %.lr.ph.i
  %8 = tail call noundef i64 @_ZNKSt7__cxx1112basic_stringIcSt11char_traitsIcESaIcEE4findEPKcm(ptr noundef nonnull align 8 dereferenceable(32) %5, ptr noundef nonnull @.str.6, i64 noundef 0) #20
  %.not6.i = icmp eq i64 %8, -1
  br i1 %.not6.i, label %9, label %_ZN6casadi7Options7has_dotERKSt3mapINSt7__cxx1112basic_stringIcSt11char_traitsIcESaIcEEENS_11GenericTypeESt4lessIS7_ESaISt4pairIKS7_S8_EEE.exit.thread

9:                                                ; preds = %7
  %10 = tail call noundef ptr @_ZSt18_Rb_tree_incrementPKSt18_Rb_tree_node_base(ptr noundef %.sroa.07.010.i) #21
  %.not16.i = icmp eq ptr %10, %4
  br i1 %.not16.i, label %_ZN6casadi7Options7has_dotERKSt3mapINSt7__cxx1112basic_stringIcSt11char_traitsIcESaIcEEENS_11GenericTypeESt4lessIS7_ESaISt4pairIKS7_S8_EEE.exit.loopexit, label %.lr.ph.i

_ZN6casadi7Options7has_dotERKSt3mapINSt7__cxx1112basic_stringIcSt11char_traitsIcESaIcEEENS_11GenericTypeESt4lessIS7_ESaISt4pairIKS7_S8_EEE.exit.loopexit: ; preds = %9
  %.pre = load ptr, ptr %2, align 8
  br label %_ZN6casadi7Options7has_dotERKSt3mapINSt7__cxx1112basic_stringIcSt11char_traitsIcESaIcEEENS_11GenericTypeESt4lessIS7_ESaISt4pairIKS7_S8_EEE.exit

_ZN6casadi7Options7has_dotERKSt3mapINSt7__cxx1112basic_stringIcSt11char_traitsIcESaIcEEENS_11GenericTypeESt4lessIS7_ESaISt4pairIKS7_S8_EEE.exit: ; preds = %_ZN6casadi7Options7has_dotERKSt3mapINSt7__cxx1112basic_stringIcSt11char_traitsIcESaIcEEENS_11GenericTypeESt4lessIS7_ESaISt4pairIKS7_S8_EEE.exit.loopexit, %1
  %11 = phi ptr [ %.pre, %_ZN6casadi7Options7has_dotERKSt3mapINSt7__cxx1112basic_stringIcSt11char_traitsIcESaIcEEENS_11GenericTypeESt4lessIS7_ESaISt4pairIKS7_S8_EEE.exit.loopexit ], [ %3, %1 ]
  %.not.i2 = icmp eq ptr %11, %4
  br i1 %.not.i2, label %_ZN6casadi7Options7has_dotERKSt3mapINSt7__cxx1112basic_stringIcSt11char_traitsIcESaIcEEENS_11GenericTypeESt4lessIS7_ESaISt4pairIKS7_S8_EEE.exit.thread, label %.lr.ph.i3

.lr.ph.i3:                                        ; preds = %_ZN6casadi7Options7has_dotERKSt3mapINSt7__cxx1112basic_stringIcSt11char_traitsIcESaIcEEENS_11GenericTypeESt4lessIS7_ESaISt4pairIKS7_S8_EEE.exit, %14
  %.sroa.05.08.i = phi ptr [ %15, %14 ], [ %11, %_ZN6casadi7Options7has_dotERKSt3mapINSt7__cxx1112basic_stringIcSt11char_traitsIcESaIcEEENS_11GenericTypeESt4lessIS7_ESaISt4pairIKS7_S8_EEE.exit ]
  %12 = getelementptr inbounds i8, ptr %.sroa.05.08.i, i64 64
  %13 = tail call noundef zeroext i1 @_ZNK6casadi12SharedObject7is_nullEv(ptr noundef nonnull align 8 dereferenceable(8) %12)
  br i1 %13, label %_ZN6casadi7Options7has_dotERKSt3mapINSt7__cxx1112basic_stringIcSt11char_traitsIcESaIcEEENS_11GenericTypeESt4lessIS7_ESaISt4pairIKS7_S8_EEE.exit.thread.loopexit, label %14

14:                                               ; preds = %.lr.ph.i3
  %15 = tail call noundef ptr @_ZSt18_Rb_tree_incrementPKSt18_Rb_tree_node_base(ptr noundef %.sroa.05.08.i) #21
  %.not11.i = icmp eq ptr %15, %4
  br i1 %.not11.i, label %_ZN6casadi7Options7has_dotERKSt3mapINSt7__cxx1112basic_stringIcSt11char_traitsIcESaIcEEENS_11GenericTypeESt4lessIS7_ESaISt4pairIKS7_S8_EEE.exit.thread.loopexit, label %.lr.ph.i3

_ZN6casadi7Options7has_dotERKSt3mapINSt7__cxx1112basic_stringIcSt11char_traitsIcESaIcEEENS_11GenericTypeESt4lessIS7_ESaISt4pairIKS7_S8_EEE.exit.thread.loopexit: ; preds = %.lr.ph.i3, %14
  %.ph = xor i1 %13, true
  br label %_ZN6casadi7Options7has_dotERKSt3mapINSt7__cxx1112basic_stringIcSt11char_traitsIcESaIcEEENS_11GenericTypeESt4lessIS7_ESaISt4pairIKS7_S8_EEE.exit.thread

_ZN6casadi7Options7has_dotERKSt3mapINSt7__cxx1112basic_stringIcSt11char_traitsIcESaIcEEENS_11GenericTypeESt4lessIS7_ESaISt4pairIKS7_S8_EEE.exit.thread: ; preds = %7, %.lr.ph.i, %_ZN6casadi7Options7has_dotERKSt3mapINSt7__cxx1112basic_stringIcSt11char_traitsIcESaIcEEENS_11GenericTypeESt4lessIS7_ESaISt4pairIKS7_S8_EEE.exit.thread.loopexit, %_ZN6casadi7Options7has_dotERKSt3mapINSt7__cxx1112basic_stringIcSt11char_traitsIcESaIcEEENS_11GenericTypeESt4lessIS7_ESaISt4pairIKS7_S8_EEE.exit
  %16 = phi i1 [ true, %_ZN6casadi7Options7has_dotERKSt3mapINSt7__cxx1112basic_stringIcSt11char_traitsIcESaIcEEENS_11GenericTypeESt4lessIS7_ESaISt4pairIKS7_S8_EEE.exit ], [ %.ph, %_ZN6casadi7Options7has_dotERKSt3mapINSt7__cxx1112basic_stringIcSt11char_traitsIcESaIcEEENS_11GenericTypeESt4lessIS7_ESaISt4pairIKS7_S8_EEE.exit.thread.loopexit ], [ false, %.lr.ph.i ], [ false, %7 ]
  ret i1 %16
}